#include <math.h>
#include <stdio.h>
#include <stdlib.h>
#include <string.h>

int main()
{
	char str[100],substr[100],max;
	int a,b,c,i,d,e,num;
	while(scanf("%s%s",str,substr)!=EOF)
	{
    	  a=strlen(str);
	      b=strlen(substr);
	      max=str[0];
	      num=0;
	      for(i=0;i<a;i++)
		  {
		     if(str[i+1]>max)
			 {
			   max=str[i+1];
			   num=i+1;
			 }
		  }
	       for(c=0;c<=num;c++)
		   {
             printf("%c",str[c]);
		   }
	       for(d=0;d<b;d++)
		   {
		      printf("%c",substr[d]);
		   }
	       for(e=num+1;e<a;e++)
		   {
		     printf("%c",str[e]);
		   }
	     printf("\n");
		
	}
	return 0;
}